ccopy_reg
_reconstructor
p0
(cconfguration
FConfiguration
p1
c__builtin__
object
p2
Ntp3
Rp4
(dp5
S'supportTypes'
p6
(lp7
S'.mp3'
p8
aS'.ogg'
p9
aS'.ape'
p10
aS'flac'
p11
asS'savedRadioList'
p12
(lp13
(isong
Song
p14
(dp15
S'album'
p16
S''
p17
sS'name'
p18
S'http://195.43.138.147:8000'
p19
sS'artist'
p20
g17
sS'seconds'
p21
I0
sS'title'
p22
g17
sS'genre'
p23
g17
sS'tracknumber'
p24
g17
sS'date'
p25
g17
sS'path'
p26
g19
sS'type'
p27
I2
sba(isong
Song
p28
(dp29
S'album'
p30
g17
sS'name'
p31
S'vocaltrance.pls  [http://scfire-mtc-aa02.stream.aol.com:80/stream/1065]'
p32
sS'title'
p33
g17
sS'seconds'
p34
I0
sS'artist'
p35
g17
sS'genre'
p36
g17
sS'tracknumber'
p37
g17
sS'date'
p38
g17
sS'path'
p39
S'http://scfire-mtc-aa02.stream.aol.com:80/stream/1065'
p40
sS'type'
p41
I2
sba(isong
Song
p42
(dp43
g30
g17
sg31
S'lounge.pls  [http://scfire-ntc-aa03.stream.aol.com:80/stream/1009]'
p44
sg33
g17
sg34
I0
sg35
g17
sg36
g17
sg37
g17
sg38
g17
sg39
S'http://scfire-ntc-aa03.stream.aol.com:80/stream/1009'
p45
sg41
I2
sba(isong
Song
p46
(dp47
S'album'
p48
g17
sS'name'
p49
S'goapsy.pls  [http://scfire-ntc-aa03.stream.aol.com:80/stream/1008]'
p50
sS'artist'
p51
g17
sS'seconds'
p52
I0
sS'title'
p53
g17
sS'genre'
p54
g17
sS'tracknumber'
p55
g17
sS'date'
p56
g17
sS'path'
p57
S'http://scfire-ntc-aa03.stream.aol.com:80/stream/1008'
p58
sS'type'
p59
I2
sba(isong
Song
p60
(dp61
g48
g17
sg49
S'spacemusic.pls  [http://80.94.69.106:6304]'
p62
sg51
g17
sg52
I0
sg53
g17
sg54
g17
sg55
g17
sg56
g17
sg57
S'http://80.94.69.106:6304'
p63
sg59
I2
sbasS'savedPlayList'
p64
(lp65
(isong
Song
p66
(dp67
S'album'
p68
VLilith - Tunguska Chillout Gro
p69
sS'name'
p70
S'01 - Electro-Nick - Istra Train.mp3'
p71
sS'title'
p72
VIstra Train
p73
sS'seconds'
p74
I0
sS'artist'
p75
VElectro-Nick
p76
sS'genre'
p77
VNew Age
p78
sS'second'
p79
L472L
sS'tracknumber'
p80
V1
p81
sS'date'
p82
V2009
p83
sS'path'
p84
S'/home/ivan/Music/VA - Tunguska Electronic Music Society - Tunguska Chillout Grooves 3 - 2009/Lilith/01 - Electro-Nick - Istra Train.mp3'
p85
sS'type'
p86
I1
sba(isong
Song
p87
(dp88
g68
VLilith - Tunguska Chillout Gro
p89
sg70
S'02 - MandragorA - Zagramarsh.mp3'
p90
sg72
VZagramarsh
p91
sg74
I0
sg75
VMandragorA
p92
sg77
g78
sg80
V2
p93
sg82
V2009
p94
sg84
S'/home/ivan/Music/VA - Tunguska Electronic Music Society - Tunguska Chillout Grooves 3 - 2009/Lilith/02 - MandragorA - Zagramarsh.mp3'
p95
sg86
I1
sba(isong
Song
p96
(dp97
g68
VLilith - Tunguska Chillout Gro
p98
sg70
S'03 - Bigfoot - Old Diesel.mp3'
p99
sg72
VOld Diesel
p100
sg74
I0
sg75
VBigfoot
p101
sg77
g78
sg80
V3
p102
sg82
V2009
p103
sg84
S'/home/ivan/Music/VA - Tunguska Electronic Music Society - Tunguska Chillout Grooves 3 - 2009/Lilith/03 - Bigfoot - Old Diesel.mp3'
p104
sg86
I1
sba(isong
Song
p105
(dp106
g68
VLilith - Tunguska Chillout Gro
p107
sg70
S'04 - EXIT project - EO.mp3'
p108
sg72
VEO
p109
sg74
I0
sg75
VEXIT project
p110
sg77
g78
sg79
L269L
sg80
V4
p111
sg82
V2009
p112
sg84
S'/home/ivan/Music/VA - Tunguska Electronic Music Society - Tunguska Chillout Grooves 3 - 2009/Lilith/04 - EXIT project - EO.mp3'
p113
sg86
I1
sba(isong
Song
p114
(dp115
g68
VLilith - Tunguska Chillout Gro
p116
sg70
S'05 - MoVoX - Black Sands.mp3'
p117
sg72
VBlack Sands
p118
sg74
I0
sg75
VMoVoX
p119
sg77
g78
sg80
V5
p120
sg82
V2009
p121
sg84
S'/home/ivan/Music/VA - Tunguska Electronic Music Society - Tunguska Chillout Grooves 3 - 2009/Lilith/05 - MoVoX - Black Sands.mp3'
p122
sg86
I1
sba(isong
Song
p123
(dp124
g68
VLilith - Tunguska Chillout Gro
p125
sg70
S'06 - Che-Back - Storm.mp3'
p126
sg72
VStorm
p127
sg74
I0
sg75
VChe-Back
p128
sg77
g78
sg79
L252L
sg80
V6
p129
sg82
V2009
p130
sg84
S'/home/ivan/Music/VA - Tunguska Electronic Music Society - Tunguska Chillout Grooves 3 - 2009/Lilith/06 - Che-Back - Storm.mp3'
p131
sg86
I1
sba(isong
Song
p132
(dp133
g68
VLilith - Tunguska Chillout Gro
p134
sg70
S'07 - ARGONIKA - Heavens Cry.mp3'
p135
sg72
VHeavens Cry
p136
sg74
I0
sg75
VARGONIKA
p137
sg77
g78
sg79
L479L
sg80
V7
p138
sg82
V2009
p139
sg84
S'/home/ivan/Music/VA - Tunguska Electronic Music Society - Tunguska Chillout Grooves 3 - 2009/Lilith/07 - ARGONIKA - Heavens Cry.mp3'
p140
sg86
I1
sba(isong
Song
p141
(dp142
g68
VLilith - Tunguska Chillout Gro
p143
sg70
S'08 - Shanti Place - Not Dark, Not Empty, But Nothing.mp3'
p144
sg72
VNot Dark, Not Empty, But Nothi
p145
sg74
I0
sg75
VShanti Place
p146
sg77
g78
sg80
V8
p147
sg82
V2009
p148
sg84
S'/home/ivan/Music/VA - Tunguska Electronic Music Society - Tunguska Chillout Grooves 3 - 2009/Lilith/08 - Shanti Place - Not Dark, Not Empty, But Nothing.mp3'
p149
sg86
I1
sba(isong
Song
p150
(dp151
g68
VLilith - Tunguska Chillout Gro
p152
sg70
S'09 - Celestial Spirit - Emptiness.mp3'
p153
sg72
VEmptiness
p154
sg74
I0
sg75
VCelestial Spirit
p155
sg77
g78
sg80
V9
p156
sg82
V2009
p157
sg84
S'/home/ivan/Music/VA - Tunguska Electronic Music Society - Tunguska Chillout Grooves 3 - 2009/Lilith/09 - Celestial Spirit - Emptiness.mp3'
p158
sg86
I1
sba(isong
Song
p159
(dp160
g68
VLilith - Tunguska Chillout Gro
p161
sg70
S'10 - Arkady Pavlov - Lost in Love.mp3'
p162
sg72
VLost in Love
p163
sg74
I0
sg75
VArkady Pavlov
p164
sg77
g78
sg80
V10
p165
sg82
V2009
p166
sg84
S'/home/ivan/Music/VA - Tunguska Electronic Music Society - Tunguska Chillout Grooves 3 - 2009/Lilith/10 - Arkady Pavlov - Lost in Love.mp3'
p167
sg86
I1
sba(isong
Song
p168
(dp169
g68
VLilith - Tunguska Chillout Gro
p170
sg70
S'11 - AlexkaY - Up and Out.mp3'
p171
sg72
VUp and Out
p172
sg74
I0
sg75
VAlexkaY
p173
sg77
g78
sg80
V11
p174
sg82
V2009
p175
sg84
S'/home/ivan/Music/VA - Tunguska Electronic Music Society - Tunguska Chillout Grooves 3 - 2009/Lilith/11 - AlexkaY - Up and Out.mp3'
p176
sg86
I1
sba(isong
Song
p177
(dp178
g68
VLilith - Tunguska Chillout Gro
p179
sg70
S'12 - Bigfoot - Bionicle.mp3'
p180
sg72
VBionicle
p181
sg74
I0
sg75
VBigfoot
p182
sg77
g78
sg80
V12
p183
sg82
V2009
p184
sg84
S'/home/ivan/Music/VA - Tunguska Electronic Music Society - Tunguska Chillout Grooves 3 - 2009/Lilith/12 - Bigfoot - Bionicle.mp3'
p185
sg86
I1
sba(isong
Song
p186
(dp187
g68
VLilith - Tunguska Chillout Gro
p188
sg70
S'13 - Aurora Borealis - Ocean.mp3'
p189
sg72
VOcean
p190
sg74
I0
sg75
VAurora Borealis
p191
sg77
g78
sg80
V13
p192
sg82
V2009
p193
sg84
S'/home/ivan/Music/VA - Tunguska Electronic Music Society - Tunguska Chillout Grooves 3 - 2009/Lilith/13 - Aurora Borealis - Ocean.mp3'
p194
sg86
I1
sba(isong
Song
p195
(dp196
g68
VLilith - Tunguska Chillout Gro
p197
sg70
S'14 - ARGONIKA - Do You Hear.mp3'
p198
sg72
VDo You Hear
p199
sg74
I0
sg75
VARGONIKA
p200
sg77
g78
sg80
V14
p201
sg82
V2009
p202
sg84
S'/home/ivan/Music/VA - Tunguska Electronic Music Society - Tunguska Chillout Grooves 3 - 2009/Lilith/14 - ARGONIKA - Do You Hear.mp3'
p203
sg86
I1
sbasS'isRepeat'
p204
I01
sS'isPlayOnStart'
p205
I01
sS'volumeValue'
p206
F0.58105802047781574
sS'savedSongIndex'
p207
I6
sS'isRandom'
p208
I00
sS'vpanelPostition'
p209
I533
sS'mediaLibraryPath'
p210
S'/home/ivan/Music'
p211
sS'hpanelPostition'
p212
I404
sb.