ccopy_reg
_reconstructor
p0
(cconfguration
FoobNixConf
p1
c__builtin__
object
p2
Ntp3
Rp4
(dp5
S'mediaLibraryPath'
p6
S'/home/ivan/Music'
p7
sS'supportTypes'
p8
(lp9
S'.mp3'
p10
aS'.ogg'
p11
aS'.ape'
p12
aS'.cue'
p13
aS'flac'
p14
asS'currentSongIndex'
p15
NsS'currentPlayListSongs'
p16
NsS'currentSong'
p17
Nsb.