ccopy_reg
_reconstructor
p0
(cconfguration
FoobNixConf
p1
c__builtin__
object
p2
Ntp3
Rp4
(dp5
S'supportTypes'
p6
(lp7
S'.mp3'
p8
aS'.ogg'
p9
aS'.ape'
p10
aS'.cue'
p11
aS'flac'
p12
asS'savedPlayList'
p13
(lp14
(isong
Song
p15
(dp16
S'album'
p17
S''
p18
sS'name'
p19
S'04 Sun (Der Wind).mp3'
p20
sS'title'
p21
g18
sS'artist'
p22
g18
sS'genre'
p23
VOther
p24
sS'tracknumber'
p25
g18
sS'date'
p26
g18
sS'path'
p27
S'/home/ivan/Music/I ging symphony/04 Sun (Der Wind).mp3'
p28
sba(isong
Song
p29
(dp30
g17
g18
sg19
S'08 Gen (Der Berg).mp3'
p31
sg21
g18
sg22
g18
sg23
g24
sg25
g18
sg26
g18
sg27
S'/home/ivan/Music/I ging symphony/08 Gen (Der Berg).mp3'
p32
sba(isong
Song
p33
(dp34
g17
g18
sg19
S'07 Dui (Der See).mp3'
p35
sg21
g18
sg22
g18
sg23
g24
sg25
g18
sg26
g18
sg27
S'/home/ivan/Music/I ging symphony/07 Dui (Der See).mp3'
p36
sba(isong
Song
p37
(dp38
g17
g18
sg19
S'03 Dschen (Der Donner).mp3'
p39
sg21
g18
sg22
g18
sg23
g24
sg25
g18
sg26
g18
sg27
S'/home/ivan/Music/I ging symphony/03 Dschen (Der Donner).mp3'
p40
sba(isong
Song
p41
(dp42
g17
g18
sg19
S'05 Li (Das Feuer).mp3'
p43
sg21
g18
sg22
g18
sg23
g24
sg25
g18
sg26
g18
sg27
S'/home/ivan/Music/I ging symphony/05 Li (Das Feuer).mp3'
p44
sba(isong
Song
p45
(dp46
g17
g18
sg19
S'06 Kan (Das Wasser).mp3'
p47
sg21
g18
sg22
g18
sg23
g24
sg25
g18
sg26
g18
sg27
S'/home/ivan/Music/I ging symphony/06 Kan (Das Wasser).mp3'
p48
sba(isong
Song
p49
(dp50
g17
g18
sg19
S'02 Kun (Die Erde).mp3'
p51
sg21
g18
sg22
g18
sg23
g24
sg25
g18
sg26
g18
sg27
S'/home/ivan/Music/I ging symphony/02 Kun (Die Erde).mp3'
p52
sba(isong
Song
p53
(dp54
g17
g18
sg19
S'01 Kien (Der Himmel).mp3'
p55
sg21
g18
sg22
g18
sg23
g24
sg25
g18
sg26
g18
sg27
S'/home/ivan/Music/I ging symphony/01 Kien (Der Himmel).mp3'
p56
sbasS'isRepeat'
p57
I01
sS'isPlayOnStart'
p58
I01
sS'savedSongIndex'
p59
I1
sS'isRandom'
p60
I00
sS'mediaLibraryPath'
p61
S'/home/ivan/Music'
p62
sb.