ccopy_reg
_reconstructor
p0
(cconfguration
FoobNixConf
p1
c__builtin__
object
p2
Ntp3
Rp4
(dp5
S'mediaLibraryPath'
p6
S'/home/ivan/Music'
p7
sS'currentSongIndex'
p8
NsS'currentPlayListSongs'
p9
NsS'currentSong'
p10
Nsb.