ccopy_reg
_reconstructor
p0
(cconfguration
FoobNixConf
p1
c__builtin__
object
p2
Ntp3
Rp4
(dp5
S'supportTypes'
p6
(lp7
S'.mp3'
p8
aS'.ogg'
p9
aS'.ape'
p10
aS'.cue'
p11
aS'flac'
p12
asS'savedPlayList'
p13
(lp14
(isong
Song
p15
(dp16
S'album'
p17
VThe Very Best of the Royal Philarmonic Orchestra (CD 1)
p18
sS'name'
p19
S'08 Bohemian Rhapsody.mp3'
p20
sS'artist'
p21
VRoyal Philarmonic Orchestra
p22
sS'title'
p23
VBohemian Rhapsody
p24
sS'genre'
p25
VRock
p26
sS'tracknumber'
p27
V08/10
p28
sS'date'
p29
V1994
p30
sS'path'
p31
S'/home/ivan/Music/CD1/08 Bohemian Rhapsody.mp3'
p32
sba(isong
Song
p33
(dp34
g17
VThe Very Best of the Royal Philarmonic Orchestra (CD 1)
p35
sg19
S'04 No Son Of Mine.mp3'
p36
sg21
VRoyal Philarmonic Orchestra
p37
sg23
VNo Son Of Mine
p38
sg25
VRock
p39
sg27
V04/10
p40
sg29
V1994
p41
sg31
S'/home/ivan/Music/CD1/04 No Son Of Mine.mp3'
p42
sba(isong
Song
p43
(dp44
g17
VThe Very Best of the Royal Philarmonic Orchestra (CD 1)
p45
sg19
S'06 Your Song.mp3'
p46
sg21
VRoyal Philarmonic Orchestra
p47
sg23
VYour Song
p48
sg25
VRock
p49
sg27
V06/10
p50
sg29
V1994
p51
sg31
S'/home/ivan/Music/CD1/06 Your Song.mp3'
p52
sba(isong
Song
p53
(dp54
g17
VThe Very Best of the Royal Philarmonic Orchestra (CD 1)
p55
sg19
S'02 Throwing It All Away.mp3'
p56
sg21
VRoyal Philarmonic Orchestra
p57
sg23
VThrowing It All Away
p58
sg25
VRock
p59
sg27
V02/10
p60
sg29
V1994
p61
sg31
S'/home/ivan/Music/CD1/02 Throwing It All Away.mp3'
p62
sba(isong
Song
p63
(dp64
g17
VThe Very Best of the Royal Philarmonic Orchestra (CD 1)
p65
sg19
S'05 Another Day In Paradise.mp3'
p66
sg21
VRoyal Philarmonic Orchestra
p67
sg23
VAnother Day In Paradise
p68
sg25
VRock
p69
sg27
V05/10
p70
sg29
V1994
p71
sg31
S'/home/ivan/Music/CD1/05 Another Day In Paradise.mp3'
p72
sba(isong
Song
p73
(dp74
g17
VThe Very Best of the Royal Philarmonic Orchestra (CD 1)
p75
sg19
S'09 Rocket Man.mp3'
p76
sg21
VRoyal Philarmonic Orchestra
p77
sg23
VRocket Man
p78
sg25
VRock
p79
sg27
V09/10
p80
sg29
V1994
p81
sg31
S'/home/ivan/Music/CD1/09 Rocket Man.mp3'
p82
sba(isong
Song
p83
(dp84
g17
VThe Very Best of the Royal Philarmonic Orchestra (CD 1)
p85
sg19
S'07 In the Air Tonight.mp3'
p86
sg21
VRoyal Philarmonic Orchestra
p87
sg23
VIn the Air Tonight
p88
sg25
VRock
p89
sg27
V07/10
p90
sg29
V1994
p91
sg31
S'/home/ivan/Music/CD1/07 In the Air Tonight.mp3'
p92
sba(isong
Song
p93
(dp94
g17
VThe Very Best of the Royal Philarmonic Orchestra (CD 1)
p95
sg19
S'01 Another Brick In The Wall.mp3'
p96
sg21
VRoyal Philarmonic Orchestra
p97
sg23
VAnother Brick In The Wall
p98
sg25
VRock
p99
sg27
V01/10
p100
sg29
V1994
p101
sg31
S'/home/ivan/Music/CD1/01 Another Brick In The Wall.mp3'
p102
sba(isong
Song
p103
(dp104
g17
VThe Very Best of the Royal Philarmonic Orchestra (CD 1)
p105
sg19
S'10 The Great Gig In The Sky.mp3'
p106
sg21
VRoyal Philarmonic Orchestra
p107
sg23
VThe Great Gig In The Sky
p108
sg25
VRock
p109
sg27
V10/10
p110
sg29
V1994
p111
sg31
S'/home/ivan/Music/CD1/10 The Great Gig In The Sky.mp3'
p112
sba(isong
Song
p113
(dp114
g17
VThe Very Best of the Royal Philarmonic Orchestra (CD 1)
p115
sg19
S"03 I Still Haven't Found What I'm Looking For.mp3"
p116
sg21
VRoyal Philarmonic Orchestra
p117
sg23
VI Still Haven't Found What I'm Looking For
p118
sg25
VRock
p119
sg27
V03/10
p120
sg29
V1994
p121
sg31
S"/home/ivan/Music/CD1/03 I Still Haven't Found What I'm Looking For.mp3"
p122
sbasS'isRepeat'
p123
I01
sS'isPlayOnStart'
p124
I01
sS'savedSongIndex'
p125
I1
sS'isRandom'
p126
I00
sS'mediaLibraryPath'
p127
S'/home/ivan/Music'
p128
sb.